; Function Attrs: nounwind sspstrong uwtable
define internal fastcc i64 @class2path(i64 noundef %0) unnamed_addr #0 {
  %2 = tail call i64 @rb_class_path(i64 noundef %0) #22
  %3 = icmp eq i64 %0, 0
  %4 = and i64 %0, 7
  %5 = icmp ne i64 %4, 0
  %6 = or i1 %3, %5
  br i1 %6, label %rbimpl_RB_TYPE_P_fastpath.exit.thread, label %rbimpl_RB_TYPE_P_fastpath.exit

rbimpl_RB_TYPE_P_fastpath.exit:                   ; preds = %1
  %7 = inttoptr i64 %0 to ptr
  %8 = load i64, ptr %7, align 8, !tbaa !56
  %.fr9 = freeze i64 %8
  %9 = and i64 %.fr9, 31
  %10 = icmp eq i64 %9, 2
  %spec.select = select i1 %10, ptr @.str.49, ptr @.str.57
  br label %rbimpl_RB_TYPE_P_fastpath.exit.thread

rbimpl_RB_TYPE_P_fastpath.exit.thread:            ; preds = %rbimpl_RB_TYPE_P_fastpath.exit, %1
  %11 = phi ptr [ @.str.57, %1 ], [ %spec.select, %rbimpl_RB_TYPE_P_fastpath.exit ]
  %12 = inttoptr i64 %2 to ptr
  %13 = load i64, ptr %12, align 8, !tbaa !56, !noalias !120
  %14 = and i64 %13, 8192
  %.not.i.i.i = icmp eq i64 %14, 0
  %15 = getelementptr inbounds nuw i8, ptr %12, i64 24
  br i1 %.not.i.i.i, label %RSTRING_PTR.exit.i, label %16

16:                                               ; preds = %rbimpl_RB_TYPE_P_fastpath.exit.thread
  %.sroa.2.0.copyload.i.i = load ptr, ptr %15, align 8
  br label %RSTRING_PTR.exit.i

RSTRING_PTR.exit.i:                               ; preds = %16, %rbimpl_RB_TYPE_P_fastpath.exit.thread
  %.sroa.2.0.i.i = phi ptr [ %.sroa.2.0.copyload.i.i, %16 ], [ %15, %rbimpl_RB_TYPE_P_fastpath.exit.thread ]
  %17 = tail call ptr @rb_enc_get(i64 noundef %2) #22
  %18 = getelementptr i8, ptr %17, i64 20
  %.val.i.i = load i32, ptr %18, align 4, !tbaa !117
  %.not.i.i = icmp eq i32 %.val.i.i, 1
  br i1 %.not.i.i, label %rb_enc_asciicompat.exit.i, label %rb_enc_asciicompat.exit.thread.i

rb_enc_asciicompat.exit.i:                        ; preds = %RSTRING_PTR.exit.i
  %19 = tail call i32 @rb_enc_dummy_p(ptr noundef nonnull readonly %17) #27
  %.not3.i.i = icmp eq i32 %19, 0
  br i1 %.not3.i.i, label %21, label %rb_enc_asciicompat.exit.thread.i

rb_enc_asciicompat.exit.thread.i:                 ; preds = %rb_enc_asciicompat.exit.i, %RSTRING_PTR.exit.i
  %20 = load i64, ptr @rb_eTypeError, align 8, !tbaa !7
  tail call void (i64, ptr, ...) @rb_raise(i64 noundef %20, ptr noundef nonnull @.str.50, ptr noundef nonnull %11, i64 noundef %2) #23
  unreachable

21:                                               ; preds = %rb_enc_asciicompat.exit.i
  %22 = load i8, ptr %.sroa.2.0.i.i, align 1, !tbaa !17
  %23 = icmp eq i8 %22, 35
  br i1 %23, label %24, label %must_not_be_anonymous.exit

24:                                               ; preds = %21
  %25 = load i64, ptr @rb_eTypeError, align 8, !tbaa !7
  tail call void (i64, ptr, ...) @rb_raise(i64 noundef %25, ptr noundef nonnull @.str.51, ptr noundef nonnull %11, i64 noundef %2) #23
  unreachable

must_not_be_anonymous.exit:                       ; preds = %21
  %26 = tail call i64 @rb_path_to_class(i64 noundef %2) #22
  %27 = tail call i64 @rb_class_real(i64 noundef %0) #27
  %.not = icmp eq i64 %26, %27
  br i1 %.not, label %30, label %28

28:                                               ; preds = %must_not_be_anonymous.exit
  %29 = load i64, ptr @rb_eTypeError, align 8, !tbaa !7
  tail call void (i64, ptr, ...) @rb_raise(i64 noundef %29, ptr noundef nonnull @.str.58, i64 noundef %2) #23
  unreachable

30:                                               ; preds = %must_not_be_anonymous.exit
  ret i64 %2
}